target datalayout = "e-m:e-p270:32:32-p271:32:32-p272:64:64-i64:64-i128:128-f80:128-n8:16:32:64-S128"
target triple = "x86_64-pc-linux-gnu"

%struct.dt_pthread_mutex_t = type { %union.pthread_mutex_t }
%union.pthread_mutex_t = type { %struct.__pthread_mutex_s }
%struct.__pthread_mutex_s = type { i32, i32, i32, i32, i32, i16, i16, %struct.__pthread_internal_list }
%struct.__pthread_internal_list = type { ptr, ptr }
%struct.dt_cache_t = type { %struct.dt_pthread_mutex_t, i64, i64, i64, ptr, ptr, ptr, ptr, ptr, ptr }
%struct.dt_cache_entry_t = type { ptr, i64, i64, ptr, %union.pthread_rwlock_t, i32, i32 }
%union.pthread_rwlock_t = type { %struct.__pthread_rwlock_arch_t }
%struct.__pthread_rwlock_arch_t = type { i32, i32, i32, i32, i32, i32, i32, i32, i8, [7 x i8], i64, i32 }
%struct._GHashTableIter = type { ptr, ptr, ptr, i32, i32, ptr }

; Function Attrs: inlinehint nounwind uwtable
define internal i32 @dt_pthread_mutex_unlock(ptr noundef %0) #1 {
  %2 = alloca ptr, align 8
  store ptr %0, ptr %2, align 8, !tbaa !26
  %3 = load ptr, ptr %2, align 8, !tbaa !26
  %4 = getelementptr inbounds nuw %struct.dt_pthread_mutex_t, ptr %3, i32 0, i32 0
  %5 = call i32 @pthread_mutex_unlock(ptr noundef %4) #6
  ret i32 %5
}

; Function Attrs: inlinehint nounwind uwtable
define internal i32 @dt_pthread_mutex_lock(ptr noundef %0) #1 {
  %2 = alloca ptr, align 8
  store ptr %0, ptr %2, align 8, !tbaa !26
  %3 = load ptr, ptr %2, align 8, !tbaa !26
  %4 = getelementptr inbounds nuw %struct.dt_pthread_mutex_t, ptr %3, i32 0, i32 0
  %5 = call i32 @pthread_mutex_lock(ptr noundef %4) #6
  ret i32 %5
}

; Function Attrs: nounwind uwtable
define i32 @dt_cache_for_all(ptr noundef %0, ptr noundef %1, ptr noundef %2) #0 {
  %4 = alloca i32, align 4
  %5 = alloca ptr, align 8
  %6 = alloca ptr, align 8
  %7 = alloca ptr, align 8
  %8 = alloca %struct._GHashTableIter, align 8
  %9 = alloca ptr, align 8
  %10 = alloca ptr, align 8
  %11 = alloca ptr, align 8
  %12 = alloca i32, align 4
  %13 = alloca i32, align 4
  store ptr %0, ptr %5, align 8, !tbaa !6
  store ptr %1, ptr %6, align 8, !tbaa !28
  store ptr %2, ptr %7, align 8, !tbaa !28
  %14 = load ptr, ptr %5, align 8, !tbaa !6
  %15 = getelementptr inbounds nuw %struct.dt_cache_t, ptr %14, i32 0, i32 0
  %16 = call i32 @dt_pthread_mutex_lock(ptr noundef %15)
  call void @llvm.lifetime.start.p0(i64 40, ptr %8) #6
  call void @llvm.lifetime.start.p0(i64 8, ptr %9) #6
  call void @llvm.lifetime.start.p0(i64 8, ptr %10) #6
  %17 = load ptr, ptr %5, align 8, !tbaa !6
  %18 = getelementptr inbounds nuw %struct.dt_cache_t, ptr %17, i32 0, i32 4
  %19 = load ptr, ptr %18, align 8, !tbaa !25
  call void @g_hash_table_iter_init(ptr noundef %8, ptr noundef %19)
  br label %20

20:                                               ; preds = %44, %3
  %21 = call i32 @g_hash_table_iter_next(ptr noundef %8, ptr noundef %9, ptr noundef %10)
  %22 = icmp ne i32 %21, 0
  br i1 %22, label %23, label %45

23:                                               ; preds = %20
  call void @llvm.lifetime.start.p0(i64 8, ptr %11) #6
  %24 = load ptr, ptr %10, align 8, !tbaa !28
  store ptr %24, ptr %11, align 8, !tbaa !32
  call void @llvm.lifetime.start.p0(i64 4, ptr %12) #6
  %25 = load ptr, ptr %6, align 8, !tbaa !28
  %26 = load ptr, ptr %9, align 8, !tbaa !28
  %27 = ptrtoint ptr %26 to i64
  %28 = trunc i64 %27 to i32
  %29 = load ptr, ptr %11, align 8, !tbaa !32
  %30 = getelementptr inbounds nuw %struct.dt_cache_entry_t, ptr %29, i32 0, i32 0
  %31 = load ptr, ptr %30, align 8, !tbaa !34
  %32 = load ptr, ptr %7, align 8, !tbaa !28
  %33 = call i32 %25(i32 noundef %28, ptr noundef %31, ptr noundef %32)
  store i32 %33, ptr %12, align 4, !tbaa !38
  %34 = load i32, ptr %12, align 4, !tbaa !38
  %35 = icmp ne i32 %34, 0
  br i1 %35, label %36, label %41

36:                                               ; preds = %23
  %37 = load ptr, ptr %5, align 8, !tbaa !6
  %38 = getelementptr inbounds nuw %struct.dt_cache_t, ptr %37, i32 0, i32 0
  %39 = call i32 @dt_pthread_mutex_unlock(ptr noundef %38)
  %40 = load i32, ptr %12, align 4, !tbaa !38
  store i32 %40, ptr %4, align 4
  store i32 1, ptr %13, align 4
  br label %42

41:                                               ; preds = %23
  store i32 0, ptr %13, align 4
  br label %42

42:                                               ; preds = %41, %36
  call void @llvm.lifetime.end.p0(i64 4, ptr %12) #6
  call void @llvm.lifetime.end.p0(i64 8, ptr %11) #6
  %43 = load i32, ptr %13, align 4
  switch i32 %43, label %49 [
    i32 0, label %44
  ]

44:                                               ; preds = %42
  br label %20

45:                                               ; preds = %20
  %46 = load ptr, ptr %5, align 8, !tbaa !6
  %47 = getelementptr inbounds nuw %struct.dt_cache_t, ptr %46, i32 0, i32 0
  %48 = call i32 @dt_pthread_mutex_unlock(ptr noundef %47)
  store i32 0, ptr %4, align 4
  store i32 1, ptr %13, align 4
  br label %49

49:                                               ; preds = %45, %42
  call void @llvm.lifetime.end.p0(i64 8, ptr %10) #6
  call void @llvm.lifetime.end.p0(i64 8, ptr %9) #6
  call void @llvm.lifetime.end.p0(i64 40, ptr %8) #6
  %50 = load i32, ptr %4, align 4
  ret i32 %50
}