; Function Attrs: nounwind uwtable
define i32 @dt_cache_for_all(ptr noundef %0, ptr noundef readonly captures(none) %1, ptr noundef %2) local_unnamed_addr #0 {
  %4 = alloca %struct._GHashTableIter, align 8
  %5 = alloca ptr, align 8
  %6 = alloca ptr, align 8
  %7 = tail call i32 @pthread_mutex_lock(ptr noundef %0) #8
  call void @llvm.lifetime.start.p0(i64 40, ptr nonnull %4) #8
  call void @llvm.lifetime.start.p0(i64 8, ptr nonnull %5) #8
  call void @llvm.lifetime.start.p0(i64 8, ptr nonnull %6) #8
  %8 = getelementptr inbounds nuw i8, ptr %0, i64 64
  %9 = load ptr, ptr %8, align 8, !tbaa !18
  call void @g_hash_table_iter_init(ptr noundef nonnull %4, ptr noundef %9) #8
  br label %10

10:                                               ; preds = %12, %3
  %11 = call i32 @g_hash_table_iter_next(ptr noundef nonnull %4, ptr noundef nonnull %5, ptr noundef nonnull %6) #8
  %.not = icmp eq i32 %11, 0
  br i1 %.not, label %.thread, label %12

12:                                               ; preds = %10
  %13 = load ptr, ptr %6, align 8, !tbaa !27
  %14 = load ptr, ptr %5, align 8, !tbaa !27
  %15 = ptrtoint ptr %14 to i64
  %16 = trunc i64 %15 to i32
  %17 = load ptr, ptr %13, align 8, !tbaa !24
  %18 = call i32 %1(i32 noundef %16, ptr noundef %17, ptr noundef %2) #8
  %.not12 = icmp eq i32 %18, 0
  br i1 %.not12, label %10, label %.thread

.thread:                                          ; preds = %10, %12
  %.2 = phi i32 [ %18, %12 ], [ 0, %10 ]
  %19 = call i32 @pthread_mutex_unlock(ptr noundef %0) #8
  call void @llvm.lifetime.end.p0(i64 8, ptr nonnull %6) #8
  call void @llvm.lifetime.end.p0(i64 8, ptr nonnull %5) #8
  call void @llvm.lifetime.end.p0(i64 40, ptr nonnull %4) #8
  ret i32 %.2
}